; Function Attrs: mustprogress nounwind uwtable
define hidden noundef range(i32 0, 114) i32 @_ZN11JvmtiExport16add_module_opensE6HandleS0_S0_P10JavaThread(ptr %0, ptr %1, ptr %2, ptr noundef %3) local_unnamed_addr #1 align 2 {
  %5 = alloca %class.JavaValue, align 8
  %6 = alloca %class.LogStream, align 8
  %7 = load i8, ptr @_ZN8Universe19_module_initializedE, align 1
  %8 = trunc i8 %7 to i1
  br i1 %8, label %9, label %39

9:                                                ; preds = %4
  store i8 14, ptr %5, align 8
  %10 = load ptr, ptr getelementptr inbounds (i8, ptr @_ZN9vmClasses8_klassesE, i64 640), align 8
  %11 = load ptr, ptr getelementptr inbounds (i8, ptr @_ZN6Symbol11_vm_symbolsE, i64 8968), align 8
  %12 = load ptr, ptr getelementptr inbounds (i8, ptr @_ZN6Symbol11_vm_symbolsE, i64 8976), align 8
  %13 = ptrtoint ptr %2 to i64
  call void @_ZN9JavaCalls11call_staticEP9JavaValueP5KlassP6SymbolS5_6HandleS6_S6_P10JavaThread(ptr noundef nonnull %5, ptr noundef %10, ptr noundef %11, ptr noundef %12, ptr %0, ptr %1, i64 %13, ptr noundef %3) #19
  %14 = getelementptr inbounds i8, ptr %3, i64 8
  %15 = load ptr, ptr %14, align 8
  %.not = icmp eq ptr %15, null
  br i1 %.not, label %39, label %16

16:                                               ; preds = %9
  %17 = load i8, ptr @UseCompressedClassPointers, align 1
  %18 = trunc i8 %17 to i1
  %19 = getelementptr inbounds i8, ptr %15, i64 8
  br i1 %18, label %20, label %30

20:                                               ; preds = %16
  %21 = load i32, ptr %19, align 8
  %22 = load ptr, ptr @_ZN23CompressedKlassPointers5_baseE, align 8
  %23 = load i32, ptr @_ZN23CompressedKlassPointers6_shiftE, align 4
  %24 = ptrtoint ptr %22 to i64
  %25 = zext i32 %21 to i64
  %26 = zext nneg i32 %23 to i64
  %27 = shl i64 %25, %26
  %28 = add i64 %27, %24
  %29 = inttoptr i64 %28 to ptr
  br label %_ZNK7oopDesc5klassEv.exit

30:                                               ; preds = %16
  %31 = load ptr, ptr %19, align 8
  br label %_ZNK7oopDesc5klassEv.exit

_ZNK7oopDesc5klassEv.exit:                        ; preds = %20, %30
  %.0.i = phi ptr [ %29, %20 ], [ %31, %30 ]
  %32 = getelementptr inbounds i8, ptr %.0.i, i64 24
  %33 = load ptr, ptr %32, align 8
  call void @_ZN12outputStreamC2Eb(ptr noundef nonnull align 8 dereferenceable(56) %6, i1 noundef zeroext false) #19
  store ptr getelementptr inbounds inrange(-16, 40) (i8, ptr @_ZTV17LogStreamImplBase, i64 16), ptr %6, align 8
  %34 = getelementptr inbounds i8, ptr %6, i64 56
  call void @_ZN17LogStreamImplBase10LineBufferC1Ev(ptr noundef nonnull align 8 dereferenceable(88) %34) #19
  %35 = getelementptr inbounds i8, ptr %6, i64 144
  store i32 1, ptr %35, align 8
  %.sroa.21.0..sroa_idx.i.i = getelementptr inbounds i8, ptr %6, i64 152
  store ptr @_ZN16LogTagSetMappingILN6LogTag4typeE69ELS1_0ELS1_0ELS1_0ELS1_0ELS1_0EE7_tagsetE, ptr %.sroa.21.0..sroa_idx.i.i, align 8
  store ptr getelementptr inbounds inrange(-16, 40) (i8, ptr @_ZTV9LogStream, i64 16), ptr %6, align 8
  %36 = load ptr, ptr %14, align 8
  call void @_ZN19java_lang_Throwable5printEP7oopDescP12outputStream(ptr noundef %36, ptr noundef nonnull %6) #19
  call void @_ZN12outputStream2crEv(ptr noundef nonnull align 8 dereferenceable(56) %6) #19
  call void @_ZN12ThreadShadow23clear_pending_exceptionEv(ptr noundef nonnull align 8 dereferenceable(28) %3) #19
  %37 = load ptr, ptr getelementptr inbounds (i8, ptr @_ZN6Symbol11_vm_symbolsE, i64 1104), align 8
  %38 = icmp eq ptr %33, %37
  %. = select i1 %38, i32 103, i32 113
  call void @_ZN13LogStreamImplI15LogTargetHandleED2Ev(ptr noundef nonnull align 8 dereferenceable(160) %6) #19
  br label %39

39:                                               ; preds = %9, %4, %_ZNK7oopDesc5klassEv.exit
  %.1 = phi i32 [ %., %_ZNK7oopDesc5klassEv.exit ], [ 0, %4 ], [ 0, %9 ]
  ret i32 %.1
}